target datalayout = "e-m:e-p270:32:32-p271:32:32-p272:64:64-i64:64-i128:128-f80:128-n8:16:32:64-S128"
target triple = "x86_64-pc-linux-gnu"

; Function Attrs: nounwind uwtable
define hidden i32 @getFormatFromAlsaFormat(i32 noundef %0, ptr noundef %1, ptr noundef %2, ptr noundef %3, ptr noundef %4, ptr noundef %5) #0 {
  %7 = alloca i32, align 4
  %8 = alloca i32, align 4
  %9 = alloca ptr, align 8
  %10 = alloca ptr, align 8
  %11 = alloca ptr, align 8
  %12 = alloca ptr, align 8
  %13 = alloca ptr, align 8
  store i32 %0, ptr %8, align 4
  store ptr %1, ptr %9, align 8
  store ptr %2, ptr %10, align 8
  store ptr %3, ptr %11, align 8
  store ptr %4, ptr %12, align 8
  store ptr %5, ptr %13, align 8
  %14 = load i32, ptr %8, align 4
  %15 = call i32 @snd_pcm_format_physical_width(i32 noundef %14)
  %16 = add nsw i32 %15, 7
  %17 = sdiv i32 %16, 8
  %18 = load ptr, ptr %9, align 8
  store i32 %17, ptr %18, align 4
  %19 = load i32, ptr %8, align 4
  %20 = call i32 @snd_pcm_format_width(i32 noundef %19)
  %21 = load ptr, ptr %10, align 8
  store i32 %20, ptr %21, align 4
  %22 = load ptr, ptr %13, align 8
  store i32 0, ptr %22, align 4
  %23 = load i32, ptr %8, align 4
  %24 = call i32 @snd_pcm_format_signed(i32 noundef %23)
  %25 = icmp sgt i32 %24, 0
  %26 = zext i1 %25 to i32
  %27 = load ptr, ptr %11, align 8
  store i32 %26, ptr %27, align 4
  %28 = load i32, ptr %8, align 4
  %29 = call i32 @snd_pcm_format_big_endian(i32 noundef %28)
  %30 = icmp sgt i32 %29, 0
  %31 = zext i1 %30 to i32
  %32 = load ptr, ptr %12, align 8
  store i32 %31, ptr %32, align 4
  %33 = load i32, ptr %8, align 4
  %34 = icmp eq i32 %33, 20
  br i1 %34, label %35, label %41

35:                                               ; preds = %6
  %36 = load ptr, ptr %9, align 8
  store i32 8, ptr %36, align 4
  %37 = load ptr, ptr %13, align 8
  store i32 1, ptr %37, align 4
  %38 = load ptr, ptr %9, align 8
  %39 = load i32, ptr %38, align 4
  %40 = load ptr, ptr %10, align 8
  store i32 %39, ptr %40, align 4
  br label %57

41:                                               ; preds = %6
  %42 = load i32, ptr %8, align 4
  %43 = icmp eq i32 %42, 21
  br i1 %43, label %44, label %50

44:                                               ; preds = %41
  %45 = load ptr, ptr %9, align 8
  store i32 8, ptr %45, align 4
  %46 = load ptr, ptr %13, align 8
  store i32 2, ptr %46, align 4
  %47 = load ptr, ptr %9, align 8
  %48 = load i32, ptr %47, align 4
  %49 = load ptr, ptr %10, align 8
  store i32 %48, ptr %49, align 4
  br label %56

50:                                               ; preds = %41
  %51 = load i32, ptr %8, align 4
  %52 = call i32 @snd_pcm_format_linear(i32 noundef %51)
  %53 = icmp slt i32 %52, 1
  br i1 %53, label %54, label %55

54:                                               ; preds = %50
  store i32 0, ptr %7, align 4
  br label %62

55:                                               ; preds = %50
  br label %56

56:                                               ; preds = %55, %44
  br label %57

57:                                               ; preds = %56, %35
  %58 = load ptr, ptr %9, align 8
  %59 = load i32, ptr %58, align 4
  %60 = icmp sgt i32 %59, 0
  %61 = zext i1 %60 to i32
  store i32 %61, ptr %7, align 4
  br label %62

62:                                               ; preds = %57, %54
  %63 = load i32, ptr %7, align 4
  ret i32 %63
}