; Function Attrs: nounwind uwtable
define hidden range(i32 0, 2) i32 @getFormatFromAlsaFormat(i32 noundef %0, ptr nocapture noundef %1, ptr nocapture noundef writeonly %2, ptr nocapture noundef writeonly %3, ptr nocapture noundef writeonly %4, ptr nocapture noundef writeonly %5) local_unnamed_addr #0 {
  %7 = tail call i32 @snd_pcm_format_physical_width(i32 noundef %0) #5
  %8 = add nsw i32 %7, 7
  %9 = sdiv i32 %8, 8
  store i32 %9, ptr %1, align 4
  %10 = tail call i32 @snd_pcm_format_width(i32 noundef %0) #5
  store i32 %10, ptr %2, align 4
  store i32 0, ptr %5, align 4
  %11 = tail call i32 @snd_pcm_format_signed(i32 noundef %0) #5
  %12 = icmp sgt i32 %11, 0
  %13 = zext i1 %12 to i32
  store i32 %13, ptr %3, align 4
  %14 = tail call i32 @snd_pcm_format_big_endian(i32 noundef %0) #5
  %15 = icmp sgt i32 %14, 0
  %16 = zext i1 %15 to i32
  store i32 %16, ptr %4, align 4
  switch i32 %0, label %21 [
    i32 20, label %17
    i32 21, label %19
  ]

17:                                               ; preds = %6
  store i32 8, ptr %1, align 4
  store i32 1, ptr %5, align 4
  %18 = load i32, ptr %1, align 4
  store i32 %18, ptr %2, align 4
  br label %24

19:                                               ; preds = %6
  store i32 8, ptr %1, align 4
  store i32 2, ptr %5, align 4
  %20 = load i32, ptr %1, align 4
  store i32 %20, ptr %2, align 4
  br label %24

21:                                               ; preds = %6
  %22 = tail call i32 @snd_pcm_format_linear(i32 noundef %0) #5
  %23 = icmp slt i32 %22, 1
  br i1 %23, label %28, label %._crit_edge

._crit_edge:                                      ; preds = %21
  %.pre = load i32, ptr %1, align 4
  br label %24

24:                                               ; preds = %._crit_edge, %19, %17
  %25 = phi i32 [ %.pre, %._crit_edge ], [ %20, %19 ], [ %18, %17 ]
  %26 = icmp sgt i32 %25, 0
  %27 = zext i1 %26 to i32
  br label %28

28:                                               ; preds = %21, %24
  %.0 = phi i32 [ %27, %24 ], [ 0, %21 ]
  ret i32 %.0
}